(lp0
(i__main__
Item
p1
(dp2
S'category'
p3
S'Drink'
p4
sS'image'
p5
Vimages/Coffee.gif
p6
sS'cost'
p7
I25
sS'name'
p8
S'Coffee'
p9
sS'audio'
p10
Vsounds/Coffee.wav
p11
sba(i__main__
Item
p12
(dp13
g3
S'Food'
p14
sg5
Vimages/Sugar.gif
p15
sg7
I32
sg8
S'Sugar'
p16
sg10
Vsounds/Sugar.wav
p17
sba(i__main__
Item
p18
(dp19
g3
S'Food'
p20
sg5
Vimages/Honey.gif
p21
sg7
I20
sg8
S'Honey'
p22
sg10
Vsounds/Honey.wav
p23
sba.