(lp0
(i__main__
Item
p1
(dp2
S'category'
p3
S'Drink'
p4
sS'image'
p5
S'images/Tea.gif'
p6
sS'cost'
p7
I10
sS'name'
p8
S'Tea'
p9
sS'audio'
p10
S'sounds/Tea.wav'
p11
sba(i__main__
Item
p12
(dp13
g3
S'Drink'
p14
sg5
S'images/Coffee.gif'
p15
sg7
I12
sg8
S'Coffee'
p16
sg10
S'sounds/Coffee.wav'
p17
sba(i__main__
Item
p18
(dp19
g3
S'Food'
p20
sg5
S'images/Honey.gif'
p21
sg7
I100
sg8
S'Honey'
p22
sg10
S'sounds/Honey.wav'
p23
sba(i__main__
Item
p24
(dp25
g3
S'Drink'
p26
sg5
S'images/Milk.gif'
p27
sg7
I15
sg8
S'Milk'
p28
sg10
S'sounds/Milk.wav'
p29
sba(i__main__
Item
p30
(dp31
g3
S'Food'
p32
sg5
S'images/Sugar.gif'
p33
sg7
I20
sg8
S'Sugar'
p34
sg10
S'sounds/Sugar.wav'
p35
sba(i__main__
Item
p36
(dp37
g3
S'Drink'
p38
sg5
S'images/Default.gif'
p39
sg7
I20
sg8
S'Juice'
p40
sg10
S'sounds/Juice.wav'
p41
sba.